target datalayout = "e-m:e-p270:32:32-p271:32:32-p272:64:64-i64:64-i128:128-f80:128-n8:16:32:64-S128"
target triple = "x86_64-pc-linux-gnu"

%struct.TuplesortPublic = type { ptr, ptr, ptr, ptr, ptr, ptr, ptr, ptr, ptr, i8, i32, ptr, ptr, i32, i8, ptr }
%struct.SortSupportData = type { ptr, i32, i8, i8, i16, ptr, ptr, i8, ptr, ptr, ptr }
%struct.SortTuple = type { ptr, i64, i8, i32 }
%struct.BrinSortTuple = type { i64, %struct.BrinTuple }
%struct.BrinTuple = type { i32, i8 }

@CurrentMemoryContext = external global ptr, align 8

; Function Attrs: inlinehint nounwind uwtable
define internal ptr @MemoryContextSwitchTo(ptr noundef %0) #3 {
  %2 = alloca ptr, align 8
  %3 = alloca ptr, align 8
  store ptr %0, ptr %2, align 8
  call void @llvm.lifetime.start.p0(i64 8, ptr %3) #6
  %4 = load ptr, ptr @CurrentMemoryContext, align 8
  store ptr %4, ptr %3, align 8
  %5 = load ptr, ptr %2, align 8
  store ptr %5, ptr @CurrentMemoryContext, align 8
  %6 = load ptr, ptr %3, align 8
  call void @llvm.lifetime.end.p0(i64 8, ptr %3) #6
  ret ptr %6
}

; Function Attrs: nounwind uwtable
define dso_local void @tuplesort_putbrintuple(ptr noundef %0, ptr noundef %1, i64 noundef %2) #0 {
  %4 = alloca ptr, align 8
  %5 = alloca ptr, align 8
  %6 = alloca i64, align 8
  %7 = alloca %struct.SortTuple, align 8
  %8 = alloca ptr, align 8
  %9 = alloca ptr, align 8
  %10 = alloca ptr, align 8
  %11 = alloca i64, align 8
  store ptr %0, ptr %4, align 8
  store ptr %1, ptr %5, align 8
  store i64 %2, ptr %6, align 8
  call void @llvm.lifetime.start.p0(i64 24, ptr %7) #6
  call void @llvm.lifetime.start.p0(i64 8, ptr %8) #6
  call void @llvm.lifetime.start.p0(i64 8, ptr %9) #6
  %12 = load ptr, ptr %4, align 8
  store ptr %12, ptr %9, align 8
  call void @llvm.lifetime.start.p0(i64 8, ptr %10) #6
  %13 = load ptr, ptr %9, align 8
  %14 = getelementptr inbounds nuw %struct.TuplesortPublic, ptr %13, i32 0, i32 8
  %15 = load ptr, ptr %14, align 8
  %16 = call ptr @MemoryContextSwitchTo(ptr noundef %15)
  store ptr %16, ptr %10, align 8
  call void @llvm.lifetime.start.p0(i64 8, ptr %11) #6
  %17 = load i64, ptr %6, align 8
  %18 = add i64 8, %17
  %19 = call ptr @palloc(i64 noundef %18)
  store ptr %19, ptr %8, align 8
  %20 = load i64, ptr %6, align 8
  %21 = load ptr, ptr %8, align 8
  %22 = getelementptr inbounds nuw %struct.BrinSortTuple, ptr %21, i32 0, i32 0
  store i64 %20, ptr %22, align 8
  %23 = load ptr, ptr %8, align 8
  %24 = getelementptr inbounds nuw %struct.BrinSortTuple, ptr %23, i32 0, i32 1
  %25 = load ptr, ptr %5, align 8
  %26 = load i64, ptr %6, align 8
  call void @llvm.memcpy.p0.p0.i64(ptr align 8 %24, ptr align 4 %25, i64 %26, i1 false)
  %27 = load ptr, ptr %8, align 8
  %28 = getelementptr inbounds nuw %struct.SortTuple, ptr %7, i32 0, i32 0
  store ptr %27, ptr %28, align 8
  %29 = load ptr, ptr %5, align 8
  %30 = getelementptr inbounds nuw %struct.BrinTuple, ptr %29, i32 0, i32 0
  %31 = load i32, ptr %30, align 4
  %32 = zext i32 %31 to i64
  %33 = getelementptr inbounds nuw %struct.SortTuple, ptr %7, i32 0, i32 1
  store i64 %32, ptr %33, align 8
  %34 = getelementptr inbounds nuw %struct.SortTuple, ptr %7, i32 0, i32 2
  store i8 0, ptr %34, align 8
  %35 = load ptr, ptr %9, align 8
  %36 = getelementptr inbounds nuw %struct.TuplesortPublic, ptr %35, i32 0, i32 13
  %37 = load i32, ptr %36, align 8
  %38 = and i32 %37, 2
  %39 = icmp eq i32 %38, 0
  br i1 %39, label %40, label %45

40:                                               ; preds = %3
  %41 = load i64, ptr %6, align 8
  %42 = add i64 8, %41
  %43 = add i64 %42, 7
  %44 = and i64 %43, -8
  store i64 %44, ptr %11, align 8
  br label %48

45:                                               ; preds = %3
  %46 = load ptr, ptr %8, align 8
  %47 = call i64 @GetMemoryChunkSpace(ptr noundef %46)
  store i64 %47, ptr %11, align 8
  br label %48

48:                                               ; preds = %45, %40
  %49 = load ptr, ptr %4, align 8
  %50 = load ptr, ptr %9, align 8
  %51 = getelementptr inbounds nuw %struct.TuplesortPublic, ptr %50, i32 0, i32 11
  %52 = load ptr, ptr %51, align 8
  %53 = icmp ne ptr %52, null
  br i1 %53, label %54, label %66

54:                                               ; preds = %48
  %55 = load ptr, ptr %9, align 8
  %56 = getelementptr inbounds nuw %struct.TuplesortPublic, ptr %55, i32 0, i32 11
  %57 = load ptr, ptr %56, align 8
  %58 = getelementptr inbounds nuw %struct.SortSupportData, ptr %57, i32 0, i32 8
  %59 = load ptr, ptr %58, align 8
  %60 = icmp ne ptr %59, null
  br i1 %60, label %61, label %66

61:                                               ; preds = %54
  %62 = getelementptr inbounds nuw %struct.SortTuple, ptr %7, i32 0, i32 2
  %63 = load i8, ptr %62, align 8, !range !4, !noundef !5
  %64 = trunc i8 %63 to i1
  %65 = xor i1 %64, true
  br label %66

66:                                               ; preds = %61, %54, %48
  %67 = phi i1 [ false, %54 ], [ false, %48 ], [ %65, %61 ]
  %68 = load i64, ptr %11, align 8
  call void @tuplesort_puttuple_common(ptr noundef %49, ptr noundef %7, i1 noundef zeroext %67, i64 noundef %68)
  %69 = load ptr, ptr %10, align 8
  %70 = call ptr @MemoryContextSwitchTo(ptr noundef %69)
  call void @llvm.lifetime.end.p0(i64 8, ptr %11) #6
  call void @llvm.lifetime.end.p0(i64 8, ptr %10) #6
  call void @llvm.lifetime.end.p0(i64 8, ptr %9) #6
  call void @llvm.lifetime.end.p0(i64 8, ptr %8) #6
  call void @llvm.lifetime.end.p0(i64 24, ptr %7) #6
  ret void
}