; Function Attrs: nounwind uwtable
define dso_local void @tuplesort_putbrintuple(ptr noundef %0, ptr noundef readonly captures(none) %1, i64 noundef %2) local_unnamed_addr #0 {
  %4 = alloca %struct.SortTuple, align 8
  call void @llvm.lifetime.start.p0(i64 24, ptr nonnull %4) #12
  %5 = getelementptr inbounds nuw i8, ptr %0, i64 64
  %6 = load ptr, ptr %5, align 8
  %7 = load ptr, ptr @CurrentMemoryContext, align 8
  store ptr %6, ptr @CurrentMemoryContext, align 8
  %8 = add i64 %2, 8
  %9 = tail call ptr @palloc(i64 noundef %8) #12
  store i64 %2, ptr %9, align 8
  %10 = getelementptr inbounds nuw i8, ptr %9, i64 8
  tail call void @llvm.memcpy.p0.p0.i64(ptr nonnull align 8 %10, ptr align 4 %1, i64 %2, i1 false)
  store ptr %9, ptr %4, align 8
  %11 = load i32, ptr %1, align 4
  %12 = zext i32 %11 to i64
  %13 = getelementptr inbounds nuw i8, ptr %4, i64 8
  store i64 %12, ptr %13, align 8
  %14 = getelementptr inbounds nuw i8, ptr %4, i64 16
  store i8 0, ptr %14, align 8
  %15 = getelementptr inbounds nuw i8, ptr %0, i64 96
  %16 = load i32, ptr %15, align 8
  %17 = and i32 %16, 2
  %18 = icmp eq i32 %17, 0
  br i1 %18, label %19, label %22

19:                                               ; preds = %3
  %20 = add i64 %2, 15
  %21 = and i64 %20, -8
  br label %24

22:                                               ; preds = %3
  %23 = tail call i64 @GetMemoryChunkSpace(ptr noundef nonnull %9) #12
  br label %24

24:                                               ; preds = %22, %19
  %.0 = phi i64 [ %21, %19 ], [ %23, %22 ]
  %25 = getelementptr inbounds nuw i8, ptr %0, i64 80
  %26 = load ptr, ptr %25, align 8
  %.not = icmp eq ptr %26, null
  br i1 %.not, label %30, label %27

27:                                               ; preds = %24
  %28 = getelementptr inbounds nuw i8, ptr %26, i64 40
  %29 = load ptr, ptr %28, align 8
  %.not18 = icmp ne ptr %29, null
  br label %30

30:                                               ; preds = %27, %24
  %31 = phi i1 [ false, %24 ], [ %.not18, %27 ]
  call void @tuplesort_puttuple_common(ptr noundef nonnull %0, ptr noundef nonnull %4, i1 noundef zeroext %31, i64 noundef %.0) #12
  store ptr %7, ptr @CurrentMemoryContext, align 8
  call void @llvm.lifetime.end.p0(i64 24, ptr nonnull %4) #12
  ret void
}